target datalayout = "e-m:e-p270:32:32-p271:32:32-p272:64:64-i64:64-i128:128-f80:128-n8:16:32:64-S128"
target triple = "x86_64-pc-linux-gnu"

@.str = private unnamed_addr constant [20 x i8] c"SDL_JOYSTICK_DEVICE\00", align 1
@.str.1 = private unnamed_addr constant [27 x i8] c"SDL_JOYSTICK_LINUX_CLASSIC\00", align 1
@SDL_classic_joysticks = internal global i8 0, align 1
@enumeration_method = internal global i32 0, align 4
@last_joy_detect_time = internal global i64 0, align 8
@last_input_dir_mtime = internal global i64 0, align 8
@.str.2 = private unnamed_addr constant [26 x i8] c"SDL_JOYSTICK_DISABLE_UDEV\00", align 1
@.str.3 = private unnamed_addr constant [43 x i8] c"udev disabled by SDL_JOYSTICK_DISABLE_UDEV\00", align 1
@.str.4 = private unnamed_addr constant [47 x i8] c"Container detected, disabling udev integration\00", align 1
@.str.5 = private unnamed_addr constant [41 x i8] c"Using udev for joystick device discovery\00", align 1
@.str.6 = private unnamed_addr constant [44 x i8] c"Could not set up joystick <-> udev callback\00", align 1
@.str.7 = private unnamed_addr constant [45 x i8] c"udev init failed, disabling udev integration\00", align 1
@inotify_fd = internal global i32 -1, align 4
@.str.8 = private unnamed_addr constant [58 x i8] c"Unable to initialize inotify, falling back to polling: %s\00", align 1
@.str.9 = private unnamed_addr constant [11 x i8] c"/dev/input\00", align 1
@.str.10 = private unnamed_addr constant [57 x i8] c"Unable to add inotify watch, falling back to polling: %s\00", align 1

; Function Attrs: nounwind uwtable
define internal i32 @SDL_inotify_init1() #0 {
  %1 = call i32 @inotify_init1(i32 noundef 526336) #11
  ret i32 %1
}

; Function Attrs: nounwind uwtable
define internal zeroext i1 @LINUX_JoystickInit() #0 {
  %1 = alloca i1, align 1
  %2 = alloca ptr, align 8
  %3 = alloca i8, align 1
  %4 = alloca ptr, align 8
  %5 = alloca ptr, align 8
  %6 = alloca ptr, align 8
  %7 = alloca i32, align 4
  call void @llvm.lifetime.start.p0(i64 8, ptr %2) #11
  %8 = call ptr @SDL_GetHint_REAL(ptr noundef @.str)
  store ptr %8, ptr %2, align 8
  call void @llvm.lifetime.start.p0(i64 1, ptr %3) #11
  %9 = call zeroext i1 @SDL_UDEV_Init()
  %10 = zext i1 %9 to i8
  store i8 %10, ptr %3, align 1
  %11 = call zeroext i1 @SDL_GetHintBoolean_REAL(ptr noundef @.str.1, i1 noundef zeroext false)
  %12 = zext i1 %11 to i8
  store i8 %12, ptr @SDL_classic_joysticks, align 1
  store i32 0, ptr @enumeration_method, align 4
  %13 = load ptr, ptr %2, align 8
  %14 = icmp ne ptr %13, null
  br i1 %14, label %15, label %35

15:                                               ; preds = %0
  call void @llvm.lifetime.start.p0(i64 8, ptr %4) #11
  call void @llvm.lifetime.start.p0(i64 8, ptr %5) #11
  call void @llvm.lifetime.start.p0(i64 8, ptr %6) #11
  %16 = load ptr, ptr %2, align 8
  %17 = call noalias ptr @SDL_strdup_REAL(ptr noundef %16)
  store ptr %17, ptr %4, align 8
  %18 = load ptr, ptr %4, align 8
  store ptr %18, ptr %5, align 8
  br label %19

19:                                               ; preds = %30, %15
  %20 = load ptr, ptr %5, align 8
  %21 = icmp ne ptr %20, null
  br i1 %21, label %22, label %33

22:                                               ; preds = %19
  %23 = load ptr, ptr %5, align 8
  %24 = call ptr @SDL_strchr_REAL(ptr noundef %23, i32 noundef 58)
  store ptr %24, ptr %6, align 8
  %25 = load ptr, ptr %6, align 8
  %26 = icmp ne ptr %25, null
  br i1 %26, label %27, label %30

27:                                               ; preds = %22
  %28 = load ptr, ptr %6, align 8
  %29 = getelementptr inbounds nuw i8, ptr %28, i32 1
  store ptr %29, ptr %6, align 8
  store i8 0, ptr %28, align 1
  br label %30

30:                                               ; preds = %27, %22
  %31 = load ptr, ptr %5, align 8
  call void @MaybeAddDevice(ptr noundef %31)
  %32 = load ptr, ptr %6, align 8
  store ptr %32, ptr %5, align 8
  br label %19, !llvm.loop !3

33:                                               ; preds = %19
  %34 = load ptr, ptr %4, align 8
  call void @SDL_free_REAL(ptr noundef %34)
  call void @llvm.lifetime.end.p0(i64 8, ptr %6) #11
  call void @llvm.lifetime.end.p0(i64 8, ptr %5) #11
  call void @llvm.lifetime.end.p0(i64 8, ptr %4) #11
  br label %35

35:                                               ; preds = %33, %0
  store i64 0, ptr @last_joy_detect_time, align 8
  store i64 0, ptr @last_input_dir_mtime, align 8
  call void @LINUX_JoystickDetect()
  %36 = load i32, ptr @enumeration_method, align 4
  %37 = icmp eq i32 %36, 0
  br i1 %37, label %38, label %48

38:                                               ; preds = %35
  %39 = call zeroext i1 @SDL_GetHintBoolean_REAL(ptr noundef @.str.2, i1 noundef zeroext false)
  br i1 %39, label %40, label %41

40:                                               ; preds = %38
  call void (i32, ptr, ...) @SDL_LogDebug_REAL(i32 noundef 7, ptr noundef @.str.3)
  store i32 2, ptr @enumeration_method, align 4
  br label %47

41:                                               ; preds = %38
  %42 = call i32 @SDL_GetSandbox_REAL()
  %43 = icmp ne i32 %42, 0
  br i1 %43, label %44, label %45

44:                                               ; preds = %41
  call void (i32, ptr, ...) @SDL_LogDebug_REAL(i32 noundef 7, ptr noundef @.str.4)
  store i32 2, ptr @enumeration_method, align 4
  br label %46

45:                                               ; preds = %41
  call void (i32, ptr, ...) @SDL_LogDebug_REAL(i32 noundef 7, ptr noundef @.str.5)
  store i32 1, ptr @enumeration_method, align 4
  br label %46

46:                                               ; preds = %45, %44
  br label %47

47:                                               ; preds = %46, %40
  br label %48

48:                                               ; preds = %47, %35
  %49 = load i32, ptr @enumeration_method, align 4
  %50 = icmp eq i32 %49, 1
  br i1 %50, label %51, label %62

51:                                               ; preds = %48
  %52 = load i8, ptr %3, align 1, !range !5, !noundef !6
  %53 = trunc i8 %52 to i1
  br i1 %53, label %54, label %60

54:                                               ; preds = %51
  %55 = call zeroext i1 @SDL_UDEV_AddCallback(ptr noundef @joystick_udev_callback)
  br i1 %55, label %58, label %56

56:                                               ; preds = %54
  call void @SDL_UDEV_Quit()
  %57 = call zeroext i1 (ptr, ...) @SDL_SetError_REAL(ptr noundef @.str.6)
  store i1 %57, ptr %1, align 1
  store i32 1, ptr %7, align 4
  br label %91

58:                                               ; preds = %54
  %59 = call zeroext i1 @SDL_UDEV_Scan()
  br label %61

60:                                               ; preds = %51
  call void (i32, ptr, ...) @SDL_LogDebug_REAL(i32 noundef 7, ptr noundef @.str.7)
  store i32 2, ptr @enumeration_method, align 4
  br label %61

61:                                               ; preds = %60, %58
  br label %67

62:                                               ; preds = %48
  %63 = load i8, ptr %3, align 1, !range !5, !noundef !6
  %64 = trunc i8 %63 to i1
  br i1 %64, label %65, label %66

65:                                               ; preds = %62
  call void @SDL_UDEV_Quit()
  br label %66

66:                                               ; preds = %65, %62
  br label %67

67:                                               ; preds = %66, %61
  %68 = load i32, ptr @enumeration_method, align 4
  %69 = icmp ne i32 %68, 1
  br i1 %69, label %70, label %90

70:                                               ; preds = %67
  %71 = call i32 @SDL_inotify_init1()
  store i32 %71, ptr @inotify_fd, align 4
  %72 = load i32, ptr @inotify_fd, align 4
  %73 = icmp slt i32 %72, 0
  br i1 %73, label %74, label %78

74:                                               ; preds = %70
  %75 = call ptr @__errno_location() #12
  %76 = load i32, ptr %75, align 4
  %77 = call ptr @strerror(i32 noundef %76) #11
  call void (i32, ptr, ...) @SDL_LogWarn_REAL(i32 noundef 7, ptr noundef @.str.8, ptr noundef %77)
  br label %89

78:                                               ; preds = %70
  %79 = load i32, ptr @inotify_fd, align 4
  %80 = call i32 @inotify_add_watch(i32 noundef %79, ptr noundef @.str.9, i32 noundef 964) #11
  %81 = icmp slt i32 %80, 0
  br i1 %81, label %82, label %88

82:                                               ; preds = %78
  %83 = load i32, ptr @inotify_fd, align 4
  %84 = call i32 @close(i32 noundef %83)
  store i32 -1, ptr @inotify_fd, align 4
  %85 = call ptr @__errno_location() #12
  %86 = load i32, ptr %85, align 4
  %87 = call ptr @strerror(i32 noundef %86) #11
  call void (i32, ptr, ...) @SDL_LogWarn_REAL(i32 noundef 7, ptr noundef @.str.10, ptr noundef %87)
  br label %88

88:                                               ; preds = %82, %78
  br label %89

89:                                               ; preds = %88, %74
  br label %90

90:                                               ; preds = %89, %67
  store i1 true, ptr %1, align 1
  store i32 1, ptr %7, align 4
  br label %91

91:                                               ; preds = %90, %56
  call void @llvm.lifetime.end.p0(i64 1, ptr %3) #11
  call void @llvm.lifetime.end.p0(i64 8, ptr %2) #11
  %92 = load i1, ptr %1, align 1
  ret i1 %92
}