; Function Attrs: nounwind uwtable
define internal zeroext i1 @LINUX_JoystickInit() #0 {
  %1 = tail call ptr @SDL_GetHint_REAL(ptr noundef nonnull @.str) #18
  %2 = tail call zeroext i1 @SDL_UDEV_Init() #18
  %3 = tail call zeroext i1 @SDL_GetHintBoolean_REAL(ptr noundef nonnull @.str.1, i1 noundef zeroext false) #18
  %4 = zext i1 %3 to i8
  store i8 %4, ptr @SDL_classic_joysticks, align 1
  store i32 0, ptr @enumeration_method, align 4
  %.not = icmp eq ptr %1, null
  br i1 %.not, label %11, label %5

5:                                                ; preds = %0
  %6 = tail call noalias ptr @SDL_strdup_REAL(ptr noundef nonnull %1) #18
  %.not1724 = icmp eq ptr %6, null
  br i1 %.not1724, label %._crit_edge, label %.lr.ph.preheader

.lr.ph.preheader:                                 ; preds = %5
  %7 = tail call ptr @SDL_strchr_REAL(ptr noundef nonnull %6, i32 noundef 58) #18
  %.not2029 = icmp eq ptr %7, null
  br i1 %.not2029, label %._crit_edge.loopexit, label %.lr.ph

.lr.ph:                                           ; preds = %.lr.ph.preheader, %.lr.ph
  %8 = phi ptr [ %10, %.lr.ph ], [ %7, %.lr.ph.preheader ]
  %.0122530 = phi ptr [ %9, %.lr.ph ], [ %6, %.lr.ph.preheader ]
  %9 = getelementptr inbounds nuw i8, ptr %8, i64 1
  store i8 0, ptr %8, align 1
  tail call fastcc void @MaybeAddDevice(ptr noundef nonnull %.0122530)
  %10 = tail call ptr @SDL_strchr_REAL(ptr noundef nonnull %9, i32 noundef 58) #18
  %.not20 = icmp eq ptr %10, null
  br i1 %.not20, label %._crit_edge.loopexit, label %.lr.ph, !llvm.loop !3

._crit_edge.loopexit:                             ; preds = %.lr.ph, %.lr.ph.preheader
  %.01225.lcssa = phi ptr [ %6, %.lr.ph.preheader ], [ %9, %.lr.ph ]
  tail call fastcc void @MaybeAddDevice(ptr noundef nonnull %.01225.lcssa)
  br label %._crit_edge

._crit_edge:                                      ; preds = %._crit_edge.loopexit, %5
  tail call void @SDL_free_REAL(ptr noundef %6) #18
  br label %11

11:                                               ; preds = %._crit_edge, %0
  store i64 0, ptr @last_joy_detect_time, align 8
  store i64 0, ptr @last_input_dir_mtime, align 8
  tail call void @LINUX_JoystickDetect()
  %12 = load i32, ptr @enumeration_method, align 4
  switch i32 %12, label %.thread [
    i32 0, label %13
    i32 1, label %17
  ]

13:                                               ; preds = %11
  %14 = tail call zeroext i1 @SDL_GetHintBoolean_REAL(ptr noundef nonnull @.str.2, i1 noundef zeroext false) #18
  br i1 %14, label %.thread.sink.split, label %15

15:                                               ; preds = %13
  %16 = tail call i32 @SDL_GetSandbox_REAL() #18
  %.not18 = icmp eq i32 %16, 0
  br i1 %.not18, label %.thread21, label %.thread.sink.split

.thread21:                                        ; preds = %15
  tail call void (i32, ptr, ...) @SDL_LogDebug_REAL(i32 noundef 7, ptr noundef nonnull @.str.5) #18
  store i32 1, ptr @enumeration_method, align 4
  br label %17

17:                                               ; preds = %11, %.thread21
  br i1 %2, label %18, label %.thread22

18:                                               ; preds = %17
  %19 = tail call zeroext i1 @SDL_UDEV_AddCallback(ptr noundef nonnull @joystick_udev_callback) #18
  br i1 %19, label %22, label %20

20:                                               ; preds = %18
  tail call void @SDL_UDEV_Quit() #18
  %21 = tail call zeroext i1 (ptr, ...) @SDL_SetError_REAL(ptr noundef nonnull @.str.6) #18
  br label %42

22:                                               ; preds = %18
  %23 = tail call zeroext i1 @SDL_UDEV_Scan() #18
  br label %25

.thread22:                                        ; preds = %17
  tail call void (i32, ptr, ...) @SDL_LogDebug_REAL(i32 noundef 7, ptr noundef nonnull @.str.7) #18
  store i32 2, ptr @enumeration_method, align 4
  br label %26

.thread.sink.split:                               ; preds = %15, %13
  %.str.4.sink = phi ptr [ @.str.3, %13 ], [ @.str.4, %15 ]
  tail call void (i32, ptr, ...) @SDL_LogDebug_REAL(i32 noundef 7, ptr noundef nonnull %.str.4.sink) #18
  store i32 2, ptr @enumeration_method, align 4
  br label %.thread

.thread:                                          ; preds = %.thread.sink.split, %11
  br i1 %2, label %24, label %25

24:                                               ; preds = %.thread
  tail call void @SDL_UDEV_Quit() #18
  br label %25

25:                                               ; preds = %.thread, %24, %22
  %.pr = load i32, ptr @enumeration_method, align 4
  %.not19 = icmp eq i32 %.pr, 1
  br i1 %.not19, label %42, label %26

26:                                               ; preds = %.thread22, %25
  %27 = tail call i32 @inotify_init1(i32 noundef 526336) #18
  store i32 %27, ptr @inotify_fd, align 4
  %28 = icmp slt i32 %27, 0
  br i1 %28, label %29, label %33

29:                                               ; preds = %26
  %30 = tail call ptr @__errno_location() #19
  %31 = load i32, ptr %30, align 4
  %32 = tail call ptr @strerror(i32 noundef %31) #18
  tail call void (i32, ptr, ...) @SDL_LogWarn_REAL(i32 noundef 7, ptr noundef nonnull @.str.8, ptr noundef %32) #18
  br label %42

33:                                               ; preds = %26
  %34 = tail call i32 @inotify_add_watch(i32 noundef %27, ptr noundef nonnull @.str.9, i32 noundef 964) #18
  %35 = icmp slt i32 %34, 0
  br i1 %35, label %36, label %42

36:                                               ; preds = %33
  %37 = load i32, ptr @inotify_fd, align 4
  %38 = tail call i32 @close(i32 noundef %37) #18
  store i32 -1, ptr @inotify_fd, align 4
  %39 = tail call ptr @__errno_location() #19
  %40 = load i32, ptr %39, align 4
  %41 = tail call ptr @strerror(i32 noundef %40) #18
  tail call void (i32, ptr, ...) @SDL_LogWarn_REAL(i32 noundef 7, ptr noundef nonnull @.str.10, ptr noundef %41) #18
  br label %42

42:                                               ; preds = %25, %33, %36, %29, %20
  %.013 = phi i1 [ %21, %20 ], [ true, %29 ], [ true, %36 ], [ true, %33 ], [ true, %25 ]
  ret i1 %.013
}